target datalayout = "e-m:e-p270:32:32-p271:32:32-p272:64:64-i64:64-i128:128-f80:128-n8:16:32:64-S128"
target triple = "x86_64-pc-linux-gnu"

; Function Attrs: mustprogress uwtable
define internal void @_ZL19onc_rpc_add_programPvS_S_(ptr noundef %0, ptr noundef %1, ptr noundef %2) #0 {
  %4 = alloca ptr, align 8
  %5 = alloca ptr, align 8
  %6 = alloca ptr, align 8
  %7 = alloca ptr, align 8
  %8 = alloca i32, align 4
  %9 = alloca ptr, align 8
  store ptr %0, ptr %4, align 8
  store ptr %1, ptr %5, align 8
  store ptr %2, ptr %6, align 8
  %10 = load ptr, ptr %6, align 8
  store ptr %10, ptr %7, align 8
  %11 = load ptr, ptr %7, align 8
  %12 = icmp ne ptr %11, null
  br i1 %12, label %14, label %13

13:                                               ; preds = %3
  br label %22

14:                                               ; preds = %3
  %15 = load ptr, ptr %4, align 8
  %16 = ptrtoint ptr %15 to i64
  %17 = trunc i64 %16 to i32
  store i32 %17, ptr %8, align 4
  %18 = load ptr, ptr %5, align 8
  store ptr %18, ptr %9, align 8
  %19 = load ptr, ptr %7, align 8
  %20 = load i32, ptr %8, align 4
  %21 = load ptr, ptr %9, align 8
  call void @_ZN28RpcServiceResponseTimeDialog16addOncRpcProgramEjP20_rpc_prog_info_value(ptr noundef nonnull align 8 dereferenceable(316) %19, i32 noundef %20, ptr noundef %21)
  br label %22

22:                                               ; preds = %14, %13
  ret void
}