; Function Attrs: mustprogress uwtable
define internal void @_ZL19onc_rpc_add_programPvS_S_(ptr noundef %0, ptr nocapture noundef readonly %1, ptr noundef %2) #0 {
  %.not = icmp eq ptr %2, null
  br i1 %.not, label %7, label %4

4:                                                ; preds = %3
  %5 = ptrtoint ptr %0 to i64
  %6 = trunc i64 %5 to i32
  tail call void @_ZN28RpcServiceResponseTimeDialog16addOncRpcProgramEjP20_rpc_prog_info_value(ptr noundef nonnull align 8 dereferenceable(316) %2, i32 noundef %6, ptr noundef %1)
  br label %7

7:                                                ; preds = %3, %4
  ret void
}